; Function Attrs: null_pointer_is_valid sspstrong uwtable
define internal range(i32 0, 2) i32 @gsm_a_bssmap_stat_packet(ptr noundef readonly captures(none) %0, ptr readnone captures(none) %1, ptr readnone captures(none) %2, ptr noundef readonly captures(none) %3, i32 %4) #1 {
  %6 = load i8, ptr %3, align 4
  %.not.i = icmp eq i8 %6, 0
  br i1 %.not.i, label %7, label %gsm_a_stat_packet.exit

7:                                                ; preds = %5
  %8 = load ptr, ptr %0, align 8
  %9 = getelementptr inbounds nuw i8, ptr %8, i64 104
  %10 = load ptr, ptr %9, align 8
  %11 = load ptr, ptr %10, align 8
  %12 = load ptr, ptr %11, align 8
  %13 = getelementptr inbounds nuw i8, ptr %3, i64 1
  %14 = load i8, ptr %13, align 1
  %15 = zext i8 %14 to i32
  %16 = tail call ptr @stat_tap_get_field_data(ptr noundef %12, i32 noundef %15, i32 noundef 2)
  %17 = getelementptr inbounds nuw i8, ptr %16, i64 8
  %18 = load i32, ptr %17, align 8
  %19 = add i32 %18, 1
  store i32 %19, ptr %17, align 8
  %20 = load i8, ptr %13, align 1
  %21 = zext i8 %20 to i32
  tail call void @stat_tap_set_field_data(ptr noundef %12, i32 noundef %21, i32 noundef 2, ptr noundef %16)
  br label %gsm_a_stat_packet.exit

gsm_a_stat_packet.exit:                           ; preds = %5, %7
  %.0.i = phi i32 [ 1, %7 ], [ 0, %5 ]
  ret i32 %.0.i
}